target datalayout = "e-m:e-p270:32:32-p271:32:32-p272:64:64-i64:64-i128:128-f80:128-n8:16:32:64-S128"
target triple = "x86_64-unknown-linux-gnu"

%"class.icu_75::ZNStringPool" = type { ptr, ptr }

@_ZN6icu_75L11EmptyStringE = internal constant i16 0, align 2

; Function Attrs: mustprogress nounwind uwtable
define internal noundef signext i8 @_ZL9U_FAILURE10UErrorCode(i32 noundef %code) #0 {
entry:
  %code.addr = alloca i32, align 4
  store i32 %code, ptr %code.addr, align 4
  %0 = load i32, ptr %code.addr, align 4
  %cmp = icmp sgt i32 %0, 0
  %conv = zext i1 %cmp to i8
  ret i8 %conv
}

; Function Attrs: mustprogress uwtable
define noundef ptr @_ZN6icu_7512ZNStringPool5adoptEPKDsR10UErrorCode(ptr noundef nonnull align 8 dereferenceable(16) %this, ptr noundef %s, ptr noundef nonnull align 4 dereferenceable(4) %status) #1 align 2 {
entry:
  %retval = alloca ptr, align 8
  %this.addr = alloca ptr, align 8
  %s.addr = alloca ptr, align 8
  %status.addr = alloca ptr, align 8
  %pooledString = alloca ptr, align 8
  %ncs = alloca ptr, align 8
  store ptr %this, ptr %this.addr, align 8
  store ptr %s, ptr %s.addr, align 8
  store ptr %status, ptr %status.addr, align 8
  %this1 = load ptr, ptr %this.addr, align 8
  %0 = load ptr, ptr %status.addr, align 8
  %1 = load i32, ptr %0, align 4
  %call = call noundef signext i8 @_ZL9U_FAILURE10UErrorCode(i32 noundef %1)
  %tobool = icmp ne i8 %call, 0
  br i1 %tobool, label %if.then, label %if.end

if.then:                                          ; preds = %entry
  store ptr @_ZN6icu_75L11EmptyStringE, ptr %retval, align 8
  br label %return

if.end:                                           ; preds = %entry
  %2 = load ptr, ptr %s.addr, align 8
  %cmp = icmp ne ptr %2, null
  br i1 %cmp, label %if.then2, label %if.end9

if.then2:                                         ; preds = %if.end
  %fHash = getelementptr inbounds %"class.icu_75::ZNStringPool", ptr %this1, i32 0, i32 1
  %3 = load ptr, ptr %fHash, align 8
  %4 = load ptr, ptr %s.addr, align 8
  %call3 = call ptr @uhash_get_75(ptr noundef %3, ptr noundef %4)
  store ptr %call3, ptr %pooledString, align 8
  %5 = load ptr, ptr %pooledString, align 8
  %cmp4 = icmp eq ptr %5, null
  br i1 %cmp4, label %if.then5, label %if.end8

if.then5:                                         ; preds = %if.then2
  %6 = load ptr, ptr %s.addr, align 8
  store ptr %6, ptr %ncs, align 8
  %fHash6 = getelementptr inbounds %"class.icu_75::ZNStringPool", ptr %this1, i32 0, i32 1
  %7 = load ptr, ptr %fHash6, align 8
  %8 = load ptr, ptr %ncs, align 8
  %9 = load ptr, ptr %ncs, align 8
  %10 = load ptr, ptr %status.addr, align 8
  %call7 = call ptr @uhash_put_75(ptr noundef %7, ptr noundef %8, ptr noundef %9, ptr noundef %10)
  br label %if.end8

if.end8:                                          ; preds = %if.then5, %if.then2
  br label %if.end9

if.end9:                                          ; preds = %if.end8, %if.end
  %11 = load ptr, ptr %s.addr, align 8
  store ptr %11, ptr %retval, align 8
  br label %return

return:                                           ; preds = %if.end9, %if.then
  %12 = load ptr, ptr %retval, align 8
  ret ptr %12
}