; Function Attrs: mustprogress uwtable
define noundef ptr @_ZN6icu_7512ZNStringPool5adoptEPKDsR10UErrorCode(ptr nocapture noundef nonnull readonly align 8 dereferenceable(16) %this, ptr noundef %s, ptr noundef nonnull align 4 dereferenceable(4) %status) local_unnamed_addr #1 align 2 {
entry:
  %0 = load i32, ptr %status, align 4
  %cmp.i = icmp slt i32 %0, 1
  br i1 %cmp.i, label %if.end, label %return

if.end:                                           ; preds = %entry
  %cmp.not = icmp eq ptr %s, null
  br i1 %cmp.not, label %return, label %if.then2

if.then2:                                         ; preds = %if.end
  %fHash = getelementptr inbounds i8, ptr %this, i64 8
  %1 = load ptr, ptr %fHash, align 8
  %call3 = tail call ptr @uhash_get_75(ptr noundef %1, ptr noundef nonnull %s)
  %cmp4 = icmp eq ptr %call3, null
  br i1 %cmp4, label %if.then5, label %return

if.then5:                                         ; preds = %if.then2
  %2 = load ptr, ptr %fHash, align 8
  %call7 = tail call ptr @uhash_put_75(ptr noundef %2, ptr noundef nonnull %s, ptr noundef nonnull %s, ptr noundef nonnull %status)
  br label %return

return:                                           ; preds = %if.end, %if.then5, %if.then2, %entry
  %retval.0 = phi ptr [ @_ZN6icu_75L11EmptyStringE, %entry ], [ %s, %if.then2 ], [ %s, %if.then5 ], [ null, %if.end ]
  ret ptr %retval.0
}